ccopy_reg
_reconstructor
p1
(c__main__
Stroke
p2
c__builtin__
object
p3
NtRp4
(dp5
S'maxX'
p6
I246
sS'maxY'
p7
I343
sS'nRawData'
p8
I59
sS'minX'
p9
I123
sS'minY'
p10
I106
sS'rawData'
p11
(lp12
(I0
I146
I151
tp13
a(I2
I149
I151
tp14
a(I4
I160
I149
tp15
a(I5
I175
I142
tp16
a(I8
I189
I133
tp17
a(I9
I200
I123
tp18
a(I11
I208
I114
tp19
a(I13
I213
I108
tp20
a(I14
I215
I107
tp21
a(I16
I215
I106
tp22
a(I19
I215
I107
tp23
a(I21
I213
I118
tp24
a(I22
I203
I146
tp25
a(I24
I183
I199
tp26
a(I26
I162
I253
tp27
a(I27
I146
I287
tp28
a(I29
I136
I308
tp29
a(I31
I127
I330
tp30
a(I33
I124
I338
tp31
a(I34
I123
I341
tp32
a(I36
I123
I342
tp33
a(I38
I123
I343
tp34
a(I40
I123
I342
tp35
a(I41
I125
I336
tp36
a(I43
I129
I326
tp37
a(I45
I148
I290
tp38
a(I47
I164
I268
tp39
a(I49
I192
I229
tp40
a(I51
I207
I214
tp41
a(I52
I217
I206
tp42
a(I54
I227
I197
tp43
a(I56
I231
I196
tp44
a(I57
I234
I196
tp45
a(I59
I236
I196
tp46
a(I61
I238
I197
tp47
a(I62
I240
I201
tp48
a(I64
I243
I208
tp49
a(I66
I245
I218
tp50
a(I67
I246
I235
tp51
a(I69
I246
I248
tp52
a(I71
I244
I257
tp53
a(I72
I239
I263
tp54
a(I74
I237
I264
tp55
a(I76
I233
I265
tp56
a(I80
I215
I265
tp57
a(I83
I206
I260
tp58
a(I84
I204
I256
tp59
a(I86
I204
I254
tp60
a(I89
I204
I253
tp61
a(I91
I207
I252
tp62
a(I94
I210
I252
tp63
a(I96
I215
I252
tp64
a(I97
I220
I253
tp65
a(I99
I223
I255
tp66
a(I101
I229
I258
tp67
a(I103
I230
I260
tp68
a(I105
I231
I261
tp69
a(I107
I231
I262
tp70
a(I109
I232
I263
tp71
asS'data'
p72
(lp73
(I0
F0.18699186991869918
F0.189873417721519
tp74
a(I1
F0.18699186991869918
F0.189873417721519
tp75
a(I2
F0.21138211382113822
F0.189873417721519
tp76
a(I3
F0.21138211382113822
F0.189873417721519
tp77
a(I4
F0.30081300813008133
F0.18143459915611815
tp78
a(I5
F0.42276422764227645
F0.15189873417721519
tp79
a(I6
F0.42276422764227645
F0.15189873417721519
tp80
a(I7
F0.42276422764227645
F0.15189873417721519
tp81
a(I8
F0.53658536585365857
F0.11392405063291139
tp82
a(I9
F0.62601626016260159
F0.071729957805907171
tp83
a(I10
F0.62601626016260159
F0.071729957805907171
tp84
a(I11
F0.69105691056910568
F0.033755274261603373
tp85
a(I12
F0.69105691056910568
F0.033755274261603373
tp86
a(I13
F0.73170731707317072
F0.0084388185654008432
tp87
a(I14
F0.74796747967479671
F0.0042194092827004216
tp88
a(I15
F0.74796747967479671
F0.0042194092827004216
tp89
a(I16
F0.74796747967479671
F0
tp90
a(I17
F0.74796747967479671
F0
tp91
a(I18
F0.74796747967479671
F0
tp92
a(I19
F0.74796747967479671
F0.0042194092827004216
tp93
a(I20
F0.74796747967479671
F0.0042194092827004216
tp94
a(I21
F0.73170731707317072
F0.050632911392405063
tp95
a(I22
F0.65040650406504064
F0.16877637130801687
tp96
a(I23
F0.65040650406504064
F0.16877637130801687
tp97
a(I24
F0.48780487804878048
F0.39240506329113922
tp98
a(I25
F0.48780487804878048
F0.39240506329113922
tp99
a(I26
F0.31707317073170732
F0.620253164556962
tp100
a(I27
F0.18699186991869918
F0.76371308016877637
tp101
a(I28
F0.18699186991869918
F0.76371308016877637
tp102
a(I29
F0.10569105691056911
F0.85232067510548526
tp103
a(I30
F0.10569105691056911
F0.85232067510548526
tp104
a(I31
F0.032520325203252036
F0.94514767932489452
tp105
a(I32
F0.032520325203252036
F0.94514767932489452
tp106
a(I33
F0.008130081300813009
F0.97890295358649793
tp107
a(I34
F0
F0.99156118143459915
tp108
a(I35
F0
F0.99156118143459915
tp109
a(I36
F0
F0.99578059071729963
tp110
a(I37
F0
F0.99578059071729963
tp111
a(I38
F0
F1
tp112
a(I39
F0
F1
tp113
a(I40
F0
F0.99578059071729963
tp114
a(I41
F0.016260162601626018
F0.97046413502109707
tp115
a(I42
F0.016260162601626018
F0.97046413502109707
tp116
a(I43
F0.04878048780487805
F0.92827004219409281
tp117
a(I44
F0.04878048780487805
F0.92827004219409281
tp118
a(I45
F0.2032520325203252
F0.77637130801687759
tp119
a(I46
F0.2032520325203252
F0.77637130801687759
tp120
a(I47
F0.33333333333333331
F0.68354430379746833
tp121
a(I48
F0.33333333333333331
F0.68354430379746833
tp122
a(I49
F0.56097560975609762
F0.51898734177215189
tp123
a(I50
F0.56097560975609762
F0.51898734177215189
tp124
a(I51
F0.68292682926829273
F0.45569620253164556
tp125
a(I52
F0.76422764227642281
F0.4219409282700422
tp126
a(I53
F0.76422764227642281
F0.4219409282700422
tp127
a(I54
F0.84552845528455289
F0.38396624472573837
tp128
a(I55
F0.84552845528455289
F0.38396624472573837
tp129
a(I56
F0.87804878048780488
F0.379746835443038
tp130
a(I57
F0.90243902439024393
F0.379746835443038
tp131
a(I58
F0.90243902439024393
F0.379746835443038
tp132
a(I59
F0.91869918699186992
F0.379746835443038
tp133
a(I60
F0.91869918699186992
F0.379746835443038
tp134
a(I61
F0.93495934959349591
F0.38396624472573837
tp135
a(I62
F0.95121951219512191
F0.40084388185654007
tp136
a(I63
F0.95121951219512191
F0.40084388185654007
tp137
a(I64
F0.97560975609756095
F0.43037974683544306
tp138
a(I65
F0.97560975609756095
F0.43037974683544306
tp139
a(I66
F0.99186991869918695
F0.47257383966244726
tp140
a(I67
F1
F0.54430379746835444
tp141
a(I68
F1
F0.54430379746835444
tp142
a(I69
F1
F0.59915611814345993
tp143
a(I70
F1
F0.59915611814345993
tp144
a(I71
F0.98373983739837401
F0.6371308016877637
tp145
a(I72
F0.94308943089430897
F0.66244725738396626
tp146
a(I73
F0.94308943089430897
F0.66244725738396626
tp147
a(I74
F0.92682926829268297
F0.66666666666666663
tp148
a(I75
F0.92682926829268297
F0.66666666666666663
tp149
a(I76
F0.89430894308943087
F0.67088607594936711
tp150
a(I77
F0.89430894308943087
F0.67088607594936711
tp151
a(I78
F0.89430894308943087
F0.67088607594936711
tp152
a(I79
F0.89430894308943087
F0.67088607594936711
tp153
a(I80
F0.74796747967479671
F0.67088607594936711
tp154
a(I81
F0.74796747967479671
F0.67088607594936711
tp155
a(I82
F0.74796747967479671
F0.67088607594936711
tp156
a(I83
F0.67479674796747968
F0.64978902953586493
tp157
a(I84
F0.65853658536585369
F0.63291139240506333
tp158
a(I85
F0.65853658536585369
F0.63291139240506333
tp159
a(I86
F0.65853658536585369
F0.62447257383966248
tp160
a(I87
F0.65853658536585369
F0.62447257383966248
tp161
a(I88
F0.65853658536585369
F0.62447257383966248
tp162
a(I89
F0.65853658536585369
F0.620253164556962
tp163
a(I90
F0.65853658536585369
F0.620253164556962
tp164
a(I91
F0.68292682926829273
F0.61603375527426163
tp165
a(I92
F0.68292682926829273
F0.61603375527426163
tp166
a(I93
F0.68292682926829273
F0.61603375527426163
tp167
a(I94
F0.70731707317073167
F0.61603375527426163
tp168
a(I95
F0.70731707317073167
F0.61603375527426163
tp169
a(I96
F0.74796747967479671
F0.61603375527426163
tp170
a(I97
F0.78861788617886175
F0.620253164556962
tp171
a(I98
F0.78861788617886175
F0.620253164556962
tp172
a(I99
F0.81300813008130079
F0.62869198312236285
tp173
a(I100
F0.81300813008130079
F0.62869198312236285
tp174
a(I101
F0.86178861788617889
F0.64135021097046419
tp175
a(I102
F0.86178861788617889
F0.64135021097046419
tp176
a(I103
F0.86991869918699183
F0.64978902953586493
tp177
a(I104
F0.86991869918699183
F0.64978902953586493
tp178
a(I105
F0.87804878048780488
F0.65400843881856541
tp179
a(I106
F0.87804878048780488
F0.65400843881856541
tp180
a(I107
F0.87804878048780488
F0.65822784810126578
tp181
a(I108
F0.87804878048780488
F0.65822784810126578
tp182
a(I109
F0.88617886178861793
F0.66244725738396626
tp183
asS'totTime'
p184
I109
sb.