(lp1
(I0
I146
I151
tp2
a(I2
I149
I151
tp3
a(I4
I160
I149
tp4
a(I5
I175
I142
tp5
a(I8
I189
I133
tp6
a(I9
I200
I123
tp7
a(I11
I208
I114
tp8
a(I13
I213
I108
tp9
a(I14
I215
I107
tp10
a(I16
I215
I106
tp11
a(I19
I215
I107
tp12
a(I21
I213
I118
tp13
a(I22
I203
I146
tp14
a(I24
I183
I199
tp15
a(I26
I162
I253
tp16
a(I27
I146
I287
tp17
a(I29
I136
I308
tp18
a(I31
I127
I330
tp19
a(I33
I124
I338
tp20
a(I34
I123
I341
tp21
a(I36
I123
I342
tp22
a(I38
I123
I343
tp23
a(I40
I123
I342
tp24
a(I41
I125
I336
tp25
a(I43
I129
I326
tp26
a(I45
I148
I290
tp27
a(I47
I164
I268
tp28
a(I49
I192
I229
tp29
a(I51
I207
I214
tp30
a(I52
I217
I206
tp31
a(I54
I227
I197
tp32
a(I56
I231
I196
tp33
a(I57
I234
I196
tp34
a(I59
I236
I196
tp35
a(I61
I238
I197
tp36
a(I62
I240
I201
tp37
a(I64
I243
I208
tp38
a(I66
I245
I218
tp39
a(I67
I246
I235
tp40
a(I69
I246
I248
tp41
a(I71
I244
I257
tp42
a(I72
I239
I263
tp43
a(I74
I237
I264
tp44
a(I76
I233
I265
tp45
a(I80
I215
I265
tp46
a(I83
I206
I260
tp47
a(I84
I204
I256
tp48
a(I86
I204
I254
tp49
a(I89
I204
I253
tp50
a(I91
I207
I252
tp51
a(I94
I210
I252
tp52
a(I96
I215
I252
tp53
a(I97
I220
I253
tp54
a(I99
I223
I255
tp55
a(I101
I229
I258
tp56
a(I103
I230
I260
tp57
a(I105
I231
I261
tp58
a(I107
I231
I262
tp59
a(I109
I232
I263
tp60
a.